target datalayout = "e-m:e-p270:32:32-p271:32:32-p272:64:64-i64:64-i128:128-f80:128-n8:16:32:64-S128"
target triple = "x86_64-pc-linux-gnu"

%"class.std::set" = type { %"class.std::_Rb_tree" }
%"class.std::_Rb_tree" = type { %"struct.std::_Rb_tree<std::__cxx11::basic_string<char>, std::__cxx11::basic_string<char>, std::_Identity<std::__cxx11::basic_string<char>>, duckdb_re2::Prefilter::LengthThenLex>::_Rb_tree_impl" }
%"struct.std::_Rb_tree<std::__cxx11::basic_string<char>, std::__cxx11::basic_string<char>, std::_Identity<std::__cxx11::basic_string<char>>, duckdb_re2::Prefilter::LengthThenLex>::_Rb_tree_impl" = type { [8 x i8], %"struct.std::_Rb_tree_header" }
%"struct.std::_Rb_tree_header" = type { %"struct.std::_Rb_tree_node_base", i64 }
%"struct.std::_Rb_tree_node_base" = type { i32, ptr, ptr, ptr }
%"class.duckdb_re2::Prefilter::Info" = type { %"class.std::set", i8, ptr }

@_ZN10duckdb_re29Prefilter4InfoC1Ev = hidden unnamed_addr alias void (ptr), ptr @_ZN10duckdb_re29Prefilter4InfoC2Ev
@_ZN10duckdb_re29Prefilter4InfoD1Ev = hidden unnamed_addr alias void (ptr), ptr @_ZN10duckdb_re29Prefilter4InfoD2Ev

; Function Attrs: mustprogress uwtable
define hidden noundef ptr @_ZN10duckdb_re29Prefilter4Info6ConcatEPS1_S2_(ptr noundef %0, ptr noundef %1) #0 align 2 personality ptr @__gxx_personality_v0 {
  %3 = alloca ptr, align 8
  %4 = alloca ptr, align 8
  %5 = alloca ptr, align 8
  %6 = alloca ptr, align 8
  %7 = alloca ptr, align 8
  %8 = alloca i32, align 4
  store ptr %0, ptr %4, align 8, !tbaa !45
  store ptr %1, ptr %5, align 8, !tbaa !45
  %9 = load ptr, ptr %4, align 8, !tbaa !45
  %10 = icmp eq ptr %9, null
  br i1 %10, label %11, label %13

11:                                               ; preds = %2
  %12 = load ptr, ptr %5, align 8, !tbaa !45
  store ptr %12, ptr %3, align 8
  br label %37

13:                                               ; preds = %2
  call void @llvm.lifetime.start.p0(i64 8, ptr %6) #18
  %14 = call noalias noundef nonnull ptr @_Znwm(i64 noundef 64) #19
  invoke void @_ZN10duckdb_re29Prefilter4InfoC1Ev(ptr noundef nonnull align 8 dereferenceable(64) %14)
          to label %15 unwind label %33

15:                                               ; preds = %13
  store ptr %14, ptr %6, align 8, !tbaa !45
  %16 = load ptr, ptr %4, align 8, !tbaa !45
  %17 = getelementptr inbounds nuw %"class.duckdb_re2::Prefilter::Info", ptr %16, i32 0, i32 0
  %18 = load ptr, ptr %5, align 8, !tbaa !45
  %19 = getelementptr inbounds nuw %"class.duckdb_re2::Prefilter::Info", ptr %18, i32 0, i32 0
  %20 = load ptr, ptr %6, align 8, !tbaa !45
  %21 = getelementptr inbounds nuw %"class.duckdb_re2::Prefilter::Info", ptr %20, i32 0, i32 0
  call void @_ZN10duckdb_re29Prefilter12CrossProductERKSt3setINSt7__cxx1112basic_stringIcSt11char_traitsIcESaIcEEENS0_13LengthThenLexESaIS7_EESC_PSA_(ptr noundef nonnull align 8 dereferenceable(48) %17, ptr noundef nonnull align 8 dereferenceable(48) %19, ptr noundef %21)
  %22 = load ptr, ptr %6, align 8, !tbaa !45
  %23 = getelementptr inbounds nuw %"class.duckdb_re2::Prefilter::Info", ptr %22, i32 0, i32 1
  store i8 1, ptr %23, align 8, !tbaa !47
  %24 = load ptr, ptr %4, align 8, !tbaa !45
  %25 = icmp eq ptr %24, null
  br i1 %25, label %27, label %26

26:                                               ; preds = %15
  call void @_ZN10duckdb_re29Prefilter4InfoD1Ev(ptr noundef nonnull align 8 dereferenceable(64) %24) #18
  call void @_ZdlPv(ptr noundef %24) #21
  br label %27

27:                                               ; preds = %26, %15
  %28 = load ptr, ptr %5, align 8, !tbaa !45
  %29 = icmp eq ptr %28, null
  br i1 %29, label %31, label %30

30:                                               ; preds = %27
  call void @_ZN10duckdb_re29Prefilter4InfoD1Ev(ptr noundef nonnull align 8 dereferenceable(64) %28) #18
  call void @_ZdlPv(ptr noundef %28) #21
  br label %31

31:                                               ; preds = %30, %27
  %32 = load ptr, ptr %6, align 8, !tbaa !45
  store ptr %32, ptr %3, align 8
  call void @llvm.lifetime.end.p0(i64 8, ptr %6) #18
  br label %37

33:                                               ; preds = %13
  %34 = landingpad { ptr, i32 }
          cleanup
  %35 = extractvalue { ptr, i32 } %34, 0
  store ptr %35, ptr %7, align 8
  %36 = extractvalue { ptr, i32 } %34, 1
  store i32 %36, ptr %8, align 4
  call void @_ZdlPv(ptr noundef %14) #21
  call void @llvm.lifetime.end.p0(i64 8, ptr %6) #18
  br label %39

37:                                               ; preds = %31, %11
  %38 = load ptr, ptr %3, align 8
  ret ptr %38

39:                                               ; preds = %33
  %40 = load ptr, ptr %7, align 8
  %41 = load i32, ptr %8, align 4
  %42 = insertvalue { ptr, i32 } poison, ptr %40, 0
  %43 = insertvalue { ptr, i32 } %42, i32 %41, 1
  resume { ptr, i32 } %43
}