; Function Attrs: mustprogress uwtable
define hidden noundef ptr @_ZN10duckdb_re29Prefilter4Info6ConcatEPS1_S2_(ptr noundef %0, ptr noundef %1) local_unnamed_addr #0 align 2 personality ptr @__gxx_personality_v0 {
  %3 = icmp eq ptr %0, null
  br i1 %3, label %33, label %4

4:                                                ; preds = %2
  %5 = tail call noalias noundef nonnull dereferenceable(64) ptr @_Znwm(i64 noundef 64) #20
  %6 = getelementptr inbounds nuw i8, ptr %5, i64 8
  store i32 0, ptr %6, align 8, !tbaa !40
  %7 = getelementptr inbounds nuw i8, ptr %5, i64 16
  store ptr null, ptr %7, align 8, !tbaa !41
  %8 = getelementptr inbounds nuw i8, ptr %5, i64 24
  store ptr %6, ptr %8, align 8, !tbaa !31
  %9 = getelementptr inbounds nuw i8, ptr %5, i64 32
  store ptr %6, ptr %9, align 8, !tbaa !42
  %10 = getelementptr inbounds nuw i8, ptr %5, i64 40
  store i64 0, ptr %10, align 8, !tbaa !36
  %11 = getelementptr inbounds nuw i8, ptr %5, i64 48
  store i8 0, ptr %11, align 8, !tbaa !43
  %12 = getelementptr inbounds nuw i8, ptr %5, i64 56
  store ptr null, ptr %12, align 8, !tbaa !51
  tail call void @_ZN10duckdb_re29Prefilter12CrossProductERKSt3setINSt7__cxx1112basic_stringIcSt11char_traitsIcESaIcEEENS0_13LengthThenLexESaIS7_EESC_PSA_(ptr noundef nonnull align 8 dereferenceable(48) %0, ptr noundef nonnull align 8 dereferenceable(48) %1, ptr noundef nonnull %5)
  store i8 1, ptr %11, align 8, !tbaa !43
  %13 = getelementptr inbounds nuw i8, ptr %0, i64 56
  %14 = load ptr, ptr %13, align 8, !tbaa !51
  %15 = icmp eq ptr %14, null
  br i1 %15, label %17, label %16

16:                                               ; preds = %4
  tail call void @_ZN10duckdb_re29PrefilterD2Ev(ptr noundef nonnull align 8 dereferenceable(52) %14) #21
  tail call void @_ZdlPv(ptr noundef nonnull %14) #22
  br label %17

17:                                               ; preds = %16, %4
  %18 = getelementptr inbounds nuw i8, ptr %0, i64 16
  %19 = load ptr, ptr %18, align 8, !tbaa !41
  invoke void @_ZNSt8_Rb_treeINSt7__cxx1112basic_stringIcSt11char_traitsIcESaIcEEES5_St9_IdentityIS5_EN10duckdb_re29Prefilter13LengthThenLexESaIS5_EE8_M_eraseEPSt13_Rb_tree_nodeIS5_E(ptr noundef nonnull align 8 dereferenceable(64) %0, ptr noundef %19)
          to label %_ZN10duckdb_re29Prefilter4InfoD2Ev.exit unwind label %20

20:                                               ; preds = %17
  %21 = landingpad { ptr, i32 }
          catch ptr null
  %22 = extractvalue { ptr, i32 } %21, 0
  tail call void @__clang_call_terminate(ptr %22) #25
  unreachable

_ZN10duckdb_re29Prefilter4InfoD2Ev.exit:          ; preds = %17
  tail call void @_ZdlPv(ptr noundef nonnull %0) #22
  %23 = getelementptr inbounds nuw i8, ptr %1, i64 56
  %24 = load ptr, ptr %23, align 8, !tbaa !51
  %25 = icmp eq ptr %24, null
  br i1 %25, label %27, label %26

26:                                               ; preds = %_ZN10duckdb_re29Prefilter4InfoD2Ev.exit
  tail call void @_ZN10duckdb_re29PrefilterD2Ev(ptr noundef nonnull align 8 dereferenceable(52) %24) #21
  tail call void @_ZdlPv(ptr noundef nonnull %24) #22
  br label %27

27:                                               ; preds = %26, %_ZN10duckdb_re29Prefilter4InfoD2Ev.exit
  %28 = getelementptr inbounds nuw i8, ptr %1, i64 16
  %29 = load ptr, ptr %28, align 8, !tbaa !41
  invoke void @_ZNSt8_Rb_treeINSt7__cxx1112basic_stringIcSt11char_traitsIcESaIcEEES5_St9_IdentityIS5_EN10duckdb_re29Prefilter13LengthThenLexESaIS5_EE8_M_eraseEPSt13_Rb_tree_nodeIS5_E(ptr noundef nonnull align 8 dereferenceable(64) %1, ptr noundef %29)
          to label %_ZN10duckdb_re29Prefilter4InfoD2Ev.exit12 unwind label %30

30:                                               ; preds = %27
  %31 = landingpad { ptr, i32 }
          catch ptr null
  %32 = extractvalue { ptr, i32 } %31, 0
  tail call void @__clang_call_terminate(ptr %32) #25
  unreachable

_ZN10duckdb_re29Prefilter4InfoD2Ev.exit12:        ; preds = %27
  tail call void @_ZdlPv(ptr noundef nonnull %1) #22
  br label %33

33:                                               ; preds = %2, %_ZN10duckdb_re29Prefilter4InfoD2Ev.exit12
  %.0 = phi ptr [ %5, %_ZN10duckdb_re29Prefilter4InfoD2Ev.exit12 ], [ %1, %2 ]
  ret ptr %.0
}